target datalayout = "e-m:e-p270:32:32-p271:32:32-p272:64:64-i64:64-i128:128-f80:128-n8:16:32:64-S128"
target triple = "x86_64-pc-linux-gnu"

%struct.SDL_GPUDevice = type { ptr, ptr, ptr, ptr, ptr, ptr, ptr, ptr, ptr, ptr, ptr, ptr, ptr, ptr, ptr, ptr, ptr, ptr, ptr, ptr, ptr, ptr, ptr, ptr, ptr, ptr, ptr, ptr, ptr, ptr, ptr, ptr, ptr, ptr, ptr, ptr, ptr, ptr, ptr, ptr, ptr, ptr, ptr, ptr, ptr, ptr, ptr, ptr, ptr, ptr, ptr, ptr, ptr, ptr, ptr, ptr, ptr, ptr, ptr, ptr, ptr, ptr, ptr, ptr, ptr, ptr, ptr, ptr, ptr, ptr, ptr, ptr, ptr, ptr, ptr, ptr, ptr, ptr, ptr, ptr, ptr, ptr, ptr, ptr, ptr, i32, i8 }
%struct.CommandBufferCommonHeader = type { ptr, %struct.RenderPass, i8, %struct.Pass, i8, %struct.Pass, i8, i8, i8 }
%struct.RenderPass = type { ptr, i8, [4 x ptr], i32, ptr }
%struct.Pass = type { ptr, i8 }

@.str.4 = private unnamed_addr constant [26 x i8] c"Parameter '%s' is invalid\00", align 1
@.str.8 = private unnamed_addr constant [103 x i8] c"generated/home/dtcxzyw/WorkSpace/Projects/compilers/llvm-opt-benchmark/bench/sdl/SDL/src/gpu/SDL_gpu.c\00", align 1
@.str.274 = private unnamed_addr constant [13 x i8] c"compute_pass\00", align 1
@SDL_DispatchGPUComputeIndirect_REAL.sdl_assert_data = internal global { i8, [3 x i8], i32, ptr, ptr, i32, [4 x i8], ptr, ptr } { i8 0, [3 x i8] zeroinitializer, i32 0, ptr @.str.277, ptr null, i32 0, [4 x i8] zeroinitializer, ptr null, ptr null }, align 8
@__func__.SDL_DispatchGPUComputeIndirect_REAL = private unnamed_addr constant [36 x i8] c"SDL_DispatchGPUComputeIndirect_REAL\00", align 1
@SDL_DispatchGPUComputeIndirect_REAL.sdl_assert_data.281 = internal global { i8, [3 x i8], i32, ptr, ptr, i32, [4 x i8], ptr, ptr } { i8 0, [3 x i8] zeroinitializer, i32 0, ptr @.str.280, ptr null, i32 0, [4 x i8] zeroinitializer, ptr null, ptr null }, align 8

; Function Attrs: nounwind uwtable
define hidden void @SDL_DispatchGPUComputeIndirect_REAL(ptr noundef %0, ptr noundef %1, i32 noundef %2) #0 {
  %4 = alloca ptr, align 8
  %5 = alloca ptr, align 8
  %6 = alloca i32, align 4
  %7 = alloca i32, align 4
  %8 = alloca i32, align 4
  %9 = alloca i32, align 4
  store ptr %0, ptr %4, align 8
  store ptr %1, ptr %5, align 8
  store i32 %2, ptr %6, align 4
  %10 = load ptr, ptr %4, align 8
  %11 = icmp eq ptr %10, null
  br i1 %11, label %12, label %14

12:                                               ; preds = %3
  %13 = call zeroext i1 (ptr, ...) @SDL_SetError_REAL(ptr noundef @.str.4, ptr noundef @.str.274)
  br label %83

14:                                               ; preds = %3
  %15 = load ptr, ptr %4, align 8
  %16 = getelementptr inbounds nuw %struct.Pass, ptr %15, i32 0, i32 0
  %17 = load ptr, ptr %16, align 8
  %18 = getelementptr inbounds nuw %struct.CommandBufferCommonHeader, ptr %17, i32 0, i32 0
  %19 = load ptr, ptr %18, align 8
  %20 = getelementptr inbounds nuw %struct.SDL_GPUDevice, ptr %19, i32 0, i32 86
  %21 = load i8, ptr %20, align 4, !range !5, !noundef !6
  %22 = trunc i8 %21 to i1
  br i1 %22, label %23, label %70

23:                                               ; preds = %14
  %24 = load ptr, ptr %4, align 8
  %25 = getelementptr inbounds nuw %struct.Pass, ptr %24, i32 0, i32 1
  %26 = load i8, ptr %25, align 8, !range !5, !noundef !6
  %27 = trunc i8 %26 to i1
  br i1 %27, label %45, label %28

28:                                               ; preds = %23
  br label %29

29:                                               ; preds = %28
  br label %30

30:                                               ; preds = %29, %41
  call void @llvm.lifetime.start.p0(i64 4, ptr %7) #6
  %31 = call i32 @SDL_ReportAssertion_REAL(ptr noundef @SDL_DispatchGPUComputeIndirect_REAL.sdl_assert_data, ptr noundef @__func__.SDL_DispatchGPUComputeIndirect_REAL, ptr noundef @.str.8, i32 noundef 2357)
  store i32 %31, ptr %7, align 4
  %32 = load i32, ptr %7, align 4
  %33 = icmp eq i32 %32, 0
  br i1 %33, label %34, label %35

34:                                               ; preds = %30
  store i32 4, ptr %8, align 4
  br label %41

35:                                               ; preds = %30
  %36 = load i32, ptr %7, align 4
  %37 = icmp eq i32 %36, 1
  br i1 %37, label %38, label %39

38:                                               ; preds = %35
  call void @llvm.debugtrap()
  br label %39

39:                                               ; preds = %38, %35
  br label %40

40:                                               ; preds = %39
  store i32 5, ptr %8, align 4
  br label %41

41:                                               ; preds = %40, %34
  call void @llvm.lifetime.end.p0(i64 4, ptr %7) #6
  %42 = load i32, ptr %8, align 4
  switch i32 %42, label %84 [
    i32 4, label %30
    i32 5, label %43
  ]

43:                                               ; preds = %41
  br label %44

44:                                               ; preds = %43
  br label %83

45:                                               ; preds = %23
  %46 = load ptr, ptr %4, align 8
  %47 = getelementptr inbounds nuw %struct.Pass, ptr %46, i32 0, i32 0
  %48 = load ptr, ptr %47, align 8
  %49 = getelementptr inbounds nuw %struct.CommandBufferCommonHeader, ptr %48, i32 0, i32 4
  %50 = load i8, ptr %49, align 8, !range !5, !noundef !6
  %51 = trunc i8 %50 to i1
  br i1 %51, label %69, label %52

52:                                               ; preds = %45
  br label %53

53:                                               ; preds = %52
  br label %54

54:                                               ; preds = %53, %65
  call void @llvm.lifetime.start.p0(i64 4, ptr %9) #6
  %55 = call i32 @SDL_ReportAssertion_REAL(ptr noundef @SDL_DispatchGPUComputeIndirect_REAL.sdl_assert_data.281, ptr noundef @__func__.SDL_DispatchGPUComputeIndirect_REAL, ptr noundef @.str.8, i32 noundef 2358)
  store i32 %55, ptr %9, align 4
  %56 = load i32, ptr %9, align 4
  %57 = icmp eq i32 %56, 0
  br i1 %57, label %58, label %59

58:                                               ; preds = %54
  store i32 8, ptr %8, align 4
  br label %65

59:                                               ; preds = %54
  %60 = load i32, ptr %9, align 4
  %61 = icmp eq i32 %60, 1
  br i1 %61, label %62, label %63

62:                                               ; preds = %59
  call void @llvm.debugtrap()
  br label %63

63:                                               ; preds = %62, %59
  br label %64

64:                                               ; preds = %63
  store i32 9, ptr %8, align 4
  br label %65

65:                                               ; preds = %64, %58
  call void @llvm.lifetime.end.p0(i64 4, ptr %9) #6
  %66 = load i32, ptr %8, align 4
  switch i32 %66, label %84 [
    i32 8, label %54
    i32 9, label %67
  ]

67:                                               ; preds = %65
  br label %68

68:                                               ; preds = %67
  br label %83

69:                                               ; preds = %45
  br label %70

70:                                               ; preds = %69, %14
  %71 = load ptr, ptr %4, align 8
  %72 = getelementptr inbounds nuw %struct.Pass, ptr %71, i32 0, i32 0
  %73 = load ptr, ptr %72, align 8
  %74 = getelementptr inbounds nuw %struct.CommandBufferCommonHeader, ptr %73, i32 0, i32 0
  %75 = load ptr, ptr %74, align 8
  %76 = getelementptr inbounds nuw %struct.SDL_GPUDevice, ptr %75, i32 0, i32 49
  %77 = load ptr, ptr %76, align 8
  %78 = load ptr, ptr %4, align 8
  %79 = getelementptr inbounds nuw %struct.Pass, ptr %78, i32 0, i32 0
  %80 = load ptr, ptr %79, align 8
  %81 = load ptr, ptr %5, align 8
  %82 = load i32, ptr %6, align 4
  call void %77(ptr noundef %80, ptr noundef %81, i32 noundef %82)
  br label %83

83:                                               ; preds = %70, %68, %44, %12
  ret void

84:                                               ; preds = %65, %41
  unreachable
}