; Function Attrs: nounwind uwtable
define hidden void @SDL_DispatchGPUComputeIndirect_REAL(ptr noundef readonly captures(address_is_null) %0, ptr noundef %1, i32 noundef %2) local_unnamed_addr #0 {
  %4 = icmp eq ptr %0, null
  br i1 %4, label %5, label %7

5:                                                ; preds = %3
  %6 = tail call zeroext i1 (ptr, ...) @SDL_SetError_REAL(ptr noundef nonnull @.str.4, ptr noundef nonnull @.str.274) #7
  br label %.thread

7:                                                ; preds = %3
  %8 = load ptr, ptr %0, align 8
  %9 = load ptr, ptr %8, align 8
  %10 = getelementptr inbounds nuw i8, ptr %9, i64 684
  %11 = load i8, ptr %10, align 4, !range !5, !noundef !6
  %12 = trunc nuw i8 %11 to i1
  br i1 %12, label %13, label %25

13:                                               ; preds = %7
  %14 = getelementptr inbounds nuw i8, ptr %0, i64 8
  %15 = load i8, ptr %14, align 8, !range !5, !noundef !6
  %16 = trunc nuw i8 %15 to i1
  br i1 %16, label %19, label %.preheader25

.preheader25:                                     ; preds = %13, %.preheader25
  %17 = tail call i32 @SDL_ReportAssertion_REAL(ptr noundef nonnull @SDL_DispatchGPUComputeIndirect_REAL.sdl_assert_data, ptr noundef nonnull @__func__.SDL_DispatchGPUComputeIndirect_REAL, ptr noundef nonnull @.str.8, i32 noundef 2357) #7
  switch i32 %17, label %.thread [
    i32 0, label %.preheader25
    i32 1, label %18
  ]

18:                                               ; preds = %.preheader25
  tail call void @llvm.debugtrap()
  br label %.thread

19:                                               ; preds = %13
  %20 = getelementptr inbounds nuw i8, ptr %8, i64 96
  %21 = load i8, ptr %20, align 8, !range !5, !noundef !6
  %22 = trunc nuw i8 %21 to i1
  br i1 %22, label %25, label %.preheader

.preheader:                                       ; preds = %19, %.preheader
  %23 = tail call i32 @SDL_ReportAssertion_REAL(ptr noundef nonnull @SDL_DispatchGPUComputeIndirect_REAL.sdl_assert_data.281, ptr noundef nonnull @__func__.SDL_DispatchGPUComputeIndirect_REAL, ptr noundef nonnull @.str.8, i32 noundef 2358) #7
  switch i32 %23, label %.thread [
    i32 0, label %.preheader
    i32 1, label %24
  ]

24:                                               ; preds = %.preheader
  tail call void @llvm.debugtrap()
  br label %.thread

25:                                               ; preds = %19, %7
  %26 = getelementptr inbounds nuw i8, ptr %9, i64 392
  %27 = load ptr, ptr %26, align 8
  tail call void %27(ptr noundef nonnull %8, ptr noundef %1, i32 noundef %2) #7
  br label %.thread

.thread:                                          ; preds = %.preheader25, %.preheader, %24, %18, %25, %5
  ret void
}